target datalayout = "e-m:e-p270:32:32-p271:32:32-p272:64:64-i64:64-i128:128-f80:128-n8:16:32:64-S128"
target triple = "x86_64-pc-linux-gnu"

%struct.ui_st = type { ptr, ptr, ptr, %struct.crypto_ex_data_st, i32, ptr }
%struct.crypto_ex_data_st = type { ptr, ptr }
%struct.ui_method_st = type { ptr, ptr, ptr, ptr, ptr, ptr, ptr, ptr, ptr, %struct.crypto_ex_data_st }

@.str = private unnamed_addr constant [30 x i8] c"../openssl/crypto/ui/ui_lib.c\00", align 1
@__const.UI_construct_prompt.prompt1 = private unnamed_addr constant [7 x i8] c"Enter \00", align 1
@__const.UI_construct_prompt.prompt2 = private unnamed_addr constant [6 x i8] c" for \00", align 1
@__const.UI_construct_prompt.prompt3 = private unnamed_addr constant [2 x i8] c":\00", align 1

; Function Attrs: nounwind uwtable
define ptr @UI_construct_prompt(ptr noundef %0, ptr noundef %1, ptr noundef %2) #0 {
  %4 = alloca ptr, align 8
  %5 = alloca ptr, align 8
  %6 = alloca ptr, align 8
  %7 = alloca ptr, align 8
  %8 = alloca ptr, align 8
  %9 = alloca [7 x i8], align 1
  %10 = alloca [6 x i8], align 1
  %11 = alloca [2 x i8], align 1
  %12 = alloca i32, align 4
  %13 = alloca i32, align 4
  store ptr %0, ptr %5, align 8, !tbaa !8
  store ptr %1, ptr %6, align 8, !tbaa !34
  store ptr %2, ptr %7, align 8, !tbaa !34
  call void @llvm.lifetime.start.p0(i64 8, ptr %8) #7
  store ptr null, ptr %8, align 8, !tbaa !34
  %14 = load ptr, ptr %5, align 8, !tbaa !8
  %15 = icmp ne ptr %14, null
  br i1 %15, label %16, label %38

16:                                               ; preds = %3
  %17 = load ptr, ptr %5, align 8, !tbaa !8
  %18 = getelementptr inbounds nuw %struct.ui_st, ptr %17, i32 0, i32 0
  %19 = load ptr, ptr %18, align 8, !tbaa !17
  %20 = icmp ne ptr %19, null
  br i1 %20, label %21, label %38

21:                                               ; preds = %16
  %22 = load ptr, ptr %5, align 8, !tbaa !8
  %23 = getelementptr inbounds nuw %struct.ui_st, ptr %22, i32 0, i32 0
  %24 = load ptr, ptr %23, align 8, !tbaa !17
  %25 = getelementptr inbounds nuw %struct.ui_method_st, ptr %24, i32 0, i32 8
  %26 = load ptr, ptr %25, align 8, !tbaa !38
  %27 = icmp ne ptr %26, null
  br i1 %27, label %28, label %38

28:                                               ; preds = %21
  %29 = load ptr, ptr %5, align 8, !tbaa !8
  %30 = getelementptr inbounds nuw %struct.ui_st, ptr %29, i32 0, i32 0
  %31 = load ptr, ptr %30, align 8, !tbaa !17
  %32 = getelementptr inbounds nuw %struct.ui_method_st, ptr %31, i32 0, i32 8
  %33 = load ptr, ptr %32, align 8, !tbaa !38
  %34 = load ptr, ptr %5, align 8, !tbaa !8
  %35 = load ptr, ptr %6, align 8, !tbaa !34
  %36 = load ptr, ptr %7, align 8, !tbaa !34
  %37 = call ptr %33(ptr noundef %34, ptr noundef %35, ptr noundef %36)
  store ptr %37, ptr %8, align 8, !tbaa !34
  br label %106

38:                                               ; preds = %21, %16, %3
  call void @llvm.lifetime.start.p0(i64 7, ptr %9) #7
  call void @llvm.memcpy.p0.p0.i64(ptr align 1 %9, ptr align 1 @__const.UI_construct_prompt.prompt1, i64 7, i1 false)
  call void @llvm.lifetime.start.p0(i64 6, ptr %10) #7
  call void @llvm.memcpy.p0.p0.i64(ptr align 1 %10, ptr align 1 @__const.UI_construct_prompt.prompt2, i64 6, i1 false)
  call void @llvm.lifetime.start.p0(i64 2, ptr %11) #7
  call void @llvm.memcpy.p0.p0.i64(ptr align 1 %11, ptr align 1 @__const.UI_construct_prompt.prompt3, i64 2, i1 false)
  call void @llvm.lifetime.start.p0(i64 4, ptr %12) #7
  store i32 0, ptr %12, align 4, !tbaa !35
  %39 = load ptr, ptr %6, align 8, !tbaa !34
  %40 = icmp eq ptr %39, null
  br i1 %40, label %41, label %42

41:                                               ; preds = %38
  store ptr null, ptr %4, align 8
  store i32 1, ptr %13, align 4
  br label %103

42:                                               ; preds = %38
  %43 = load ptr, ptr %6, align 8, !tbaa !34
  %44 = call i64 @strlen(ptr noundef %43) #8
  %45 = add i64 6, %44
  %46 = trunc i64 %45 to i32
  store i32 %46, ptr %12, align 4, !tbaa !35
  %47 = load ptr, ptr %7, align 8, !tbaa !34
  %48 = icmp ne ptr %47, null
  br i1 %48, label %49, label %57

49:                                               ; preds = %42
  %50 = load ptr, ptr %7, align 8, !tbaa !34
  %51 = call i64 @strlen(ptr noundef %50) #8
  %52 = add i64 5, %51
  %53 = load i32, ptr %12, align 4, !tbaa !35
  %54 = sext i32 %53 to i64
  %55 = add i64 %54, %52
  %56 = trunc i64 %55 to i32
  store i32 %56, ptr %12, align 4, !tbaa !35
  br label %57

57:                                               ; preds = %49, %42
  %58 = load i32, ptr %12, align 4, !tbaa !35
  %59 = sext i32 %58 to i64
  %60 = add i64 %59, 1
  %61 = trunc i64 %60 to i32
  store i32 %61, ptr %12, align 4, !tbaa !35
  %62 = load i32, ptr %12, align 4, !tbaa !35
  %63 = add nsw i32 %62, 1
  %64 = sext i32 %63 to i64
  %65 = call noalias ptr @CRYPTO_malloc(i64 noundef %64, ptr noundef @.str, i32 noundef 358)
  store ptr %65, ptr %8, align 8, !tbaa !34
  %66 = icmp eq ptr %65, null
  br i1 %66, label %67, label %68

67:                                               ; preds = %57
  store ptr null, ptr %4, align 8
  store i32 1, ptr %13, align 4
  br label %103

68:                                               ; preds = %57
  %69 = load ptr, ptr %8, align 8, !tbaa !34
  %70 = getelementptr inbounds [7 x i8], ptr %9, i64 0, i64 0
  %71 = load i32, ptr %12, align 4, !tbaa !35
  %72 = add nsw i32 %71, 1
  %73 = sext i32 %72 to i64
  %74 = call i64 @OPENSSL_strlcpy(ptr noundef %69, ptr noundef %70, i64 noundef %73)
  %75 = load ptr, ptr %8, align 8, !tbaa !34
  %76 = load ptr, ptr %6, align 8, !tbaa !34
  %77 = load i32, ptr %12, align 4, !tbaa !35
  %78 = add nsw i32 %77, 1
  %79 = sext i32 %78 to i64
  %80 = call i64 @OPENSSL_strlcat(ptr noundef %75, ptr noundef %76, i64 noundef %79)
  %81 = load ptr, ptr %7, align 8, !tbaa !34
  %82 = icmp ne ptr %81, null
  br i1 %82, label %83, label %96

83:                                               ; preds = %68
  %84 = load ptr, ptr %8, align 8, !tbaa !34
  %85 = getelementptr inbounds [6 x i8], ptr %10, i64 0, i64 0
  %86 = load i32, ptr %12, align 4, !tbaa !35
  %87 = add nsw i32 %86, 1
  %88 = sext i32 %87 to i64
  %89 = call i64 @OPENSSL_strlcat(ptr noundef %84, ptr noundef %85, i64 noundef %88)
  %90 = load ptr, ptr %8, align 8, !tbaa !34
  %91 = load ptr, ptr %7, align 8, !tbaa !34
  %92 = load i32, ptr %12, align 4, !tbaa !35
  %93 = add nsw i32 %92, 1
  %94 = sext i32 %93 to i64
  %95 = call i64 @OPENSSL_strlcat(ptr noundef %90, ptr noundef %91, i64 noundef %94)
  br label %96

96:                                               ; preds = %83, %68
  %97 = load ptr, ptr %8, align 8, !tbaa !34
  %98 = getelementptr inbounds [2 x i8], ptr %11, i64 0, i64 0
  %99 = load i32, ptr %12, align 4, !tbaa !35
  %100 = add nsw i32 %99, 1
  %101 = sext i32 %100 to i64
  %102 = call i64 @OPENSSL_strlcat(ptr noundef %97, ptr noundef %98, i64 noundef %101)
  store i32 0, ptr %13, align 4
  br label %103

103:                                              ; preds = %96, %67, %41
  call void @llvm.lifetime.end.p0(i64 4, ptr %12) #7
  call void @llvm.lifetime.end.p0(i64 2, ptr %11) #7
  call void @llvm.lifetime.end.p0(i64 6, ptr %10) #7
  call void @llvm.lifetime.end.p0(i64 7, ptr %9) #7
  %104 = load i32, ptr %13, align 4
  switch i32 %104, label %108 [
    i32 0, label %105
  ]

105:                                              ; preds = %103
  br label %106

106:                                              ; preds = %105, %28
  %107 = load ptr, ptr %8, align 8, !tbaa !34
  store ptr %107, ptr %4, align 8
  store i32 1, ptr %13, align 4
  br label %108

108:                                              ; preds = %106, %103
  call void @llvm.lifetime.end.p0(i64 8, ptr %8) #7
  %109 = load ptr, ptr %4, align 8
  ret ptr %109
}