; Function Attrs: nounwind uwtable
define ptr @UI_construct_prompt(ptr noundef %0, ptr noundef %1, ptr noundef %2) local_unnamed_addr #0 {
  %4 = alloca [7 x i8], align 1
  %5 = alloca [6 x i8], align 1
  %6 = alloca [2 x i8], align 2
  %.not = icmp eq ptr %0, null
  br i1 %.not, label %14, label %7

7:                                                ; preds = %3
  %8 = load ptr, ptr %0, align 8, !tbaa !14
  %.not41 = icmp eq ptr %8, null
  br i1 %.not41, label %14, label %9

9:                                                ; preds = %7
  %10 = getelementptr inbounds nuw i8, ptr %8, i64 64
  %11 = load ptr, ptr %10, align 8, !tbaa !29
  %.not42 = icmp eq ptr %11, null
  br i1 %.not42, label %14, label %12

12:                                               ; preds = %9
  %13 = tail call ptr %11(ptr noundef nonnull %0, ptr noundef %1, ptr noundef %2) #8
  br label %36

14:                                               ; preds = %9, %7, %3
  call void @llvm.lifetime.start.p0(i64 7, ptr nonnull %4) #8
  call void @llvm.memcpy.p0.p0.i64(ptr noundef nonnull align 1 dereferenceable(7) %4, ptr noundef nonnull align 1 dereferenceable(7) @__const.UI_construct_prompt.prompt1, i64 7, i1 false)
  call void @llvm.lifetime.start.p0(i64 6, ptr nonnull %5) #8
  call void @llvm.memcpy.p0.p0.i64(ptr noundef nonnull align 1 dereferenceable(6) %5, ptr noundef nonnull align 1 dereferenceable(6) @__const.UI_construct_prompt.prompt2, i64 6, i1 false)
  call void @llvm.lifetime.start.p0(i64 2, ptr nonnull %6) #8
  store i16 58, ptr %6, align 2
  %15 = icmp eq ptr %1, null
  br i1 %15, label %.thread, label %16

16:                                               ; preds = %14
  %17 = tail call i64 @strlen(ptr noundef nonnull dereferenceable(1) %1) #9
  %18 = add i64 %17, 6
  %.not43 = icmp eq ptr %2, null
  br i1 %.not43, label %23, label %19

19:                                               ; preds = %16
  %20 = tail call i64 @strlen(ptr noundef nonnull dereferenceable(1) %2) #9
  %21 = add i64 %17, 11
  %22 = add i64 %21, %20
  br label %23

23:                                               ; preds = %19, %16
  %.029 = phi i64 [ %22, %19 ], [ %18, %16 ]
  %24 = shl i64 %.029, 32
  %sext = add i64 %24, 8589934592
  %25 = ashr exact i64 %sext, 32
  %26 = tail call noalias ptr @CRYPTO_malloc(i64 noundef %25, ptr noundef nonnull @.str, i32 noundef 358) #8
  %27 = icmp eq ptr %26, null
  br i1 %27, label %.thread, label %28

28:                                               ; preds = %23
  %29 = call i64 @OPENSSL_strlcpy(ptr noundef nonnull %26, ptr noundef nonnull %4, i64 noundef %25) #8
  %30 = call i64 @OPENSSL_strlcat(ptr noundef nonnull %26, ptr noundef nonnull %1, i64 noundef %25) #8
  br i1 %.not43, label %34, label %31

31:                                               ; preds = %28
  %32 = call i64 @OPENSSL_strlcat(ptr noundef nonnull %26, ptr noundef nonnull %5, i64 noundef %25) #8
  %33 = call i64 @OPENSSL_strlcat(ptr noundef nonnull %26, ptr noundef nonnull %2, i64 noundef %25) #8
  br label %34

.thread:                                          ; preds = %14, %23
  call void @llvm.lifetime.end.p0(i64 2, ptr nonnull %6) #8
  call void @llvm.lifetime.end.p0(i64 6, ptr nonnull %5) #8
  call void @llvm.lifetime.end.p0(i64 7, ptr nonnull %4) #8
  br label %36

34:                                               ; preds = %31, %28
  %35 = call i64 @OPENSSL_strlcat(ptr noundef nonnull %26, ptr noundef nonnull %6, i64 noundef %25) #8
  call void @llvm.lifetime.end.p0(i64 2, ptr nonnull %6) #8
  call void @llvm.lifetime.end.p0(i64 6, ptr nonnull %5) #8
  call void @llvm.lifetime.end.p0(i64 7, ptr nonnull %4) #8
  br label %36

36:                                               ; preds = %34, %.thread, %12
  %.132 = phi ptr [ %13, %12 ], [ %26, %34 ], [ null, %.thread ]
  ret ptr %.132
}